target datalayout = "e-m:e-p270:32:32-p271:32:32-p272:64:64-i64:64-i128:128-f80:128-n8:16:32:64-S128"
target triple = "x86_64-pc-linux-gnu"

%"class.std::__cxx11::basic_string" = type { %"struct.std::__cxx11::basic_string<char>::_Alloc_hider", i64, %union.anon }
%"struct.std::__cxx11::basic_string<char>::_Alloc_hider" = type { ptr }
%union.anon = type { i64, [8 x i8] }
%"class.absl::debian2::AlphaNum" = type { %"class.absl::debian2::string_view", [32 x i8] }
%"class.absl::debian2::string_view" = type { ptr, i64 }
%"class.std::initializer_list.6" = type { ptr, i64 }

; Function Attrs: mustprogress nounwind uwtable
define linkonce_odr dso_local { ptr, i64 } @_ZNK4absl7debian28AlphaNum5PieceEv(ptr noundef nonnull align 8 dereferenceable(48) %0) #1 comdat align 2 {
  %2 = alloca %"class.absl::debian2::string_view", align 8
  %3 = alloca ptr, align 8
  store ptr %0, ptr %3, align 8, !tbaa !11
  %4 = load ptr, ptr %3, align 8
  %5 = getelementptr inbounds nuw %"class.absl::debian2::AlphaNum", ptr %4, i32 0, i32 0
  call void @llvm.memcpy.p0.p0.i64(ptr align 8 %2, ptr align 8 %5, i64 16, i1 false), !tbaa.struct !24
  %6 = load { ptr, i64 }, ptr %2, align 8
  ret { ptr, i64 } %6
}

; Function Attrs: inlinehint mustprogress uwtable
define linkonce_odr dso_local void @_ZN4absl7debian26StrCatIJN4i18n12phonenumbers12StringHolderEEEENSt7__cxx1112basic_stringIcSt11char_traitsIcESaIcEEERKNS0_8AlphaNumESD_SD_SD_SD_DpRKT_(ptr dead_on_unwind noalias writable sret(%"class.std::__cxx11::basic_string") align 8 %0, ptr noundef nonnull align 8 dereferenceable(48) %1, ptr noundef nonnull align 8 dereferenceable(48) %2, ptr noundef nonnull align 8 dereferenceable(48) %3, ptr noundef nonnull align 8 dereferenceable(48) %4, ptr noundef nonnull align 8 dereferenceable(48) %5, ptr noundef nonnull align 8 dereferenceable(48) %6) #4 comdat {
  %8 = alloca ptr, align 8
  %9 = alloca ptr, align 8
  %10 = alloca ptr, align 8
  %11 = alloca ptr, align 8
  %12 = alloca ptr, align 8
  %13 = alloca ptr, align 8
  %14 = alloca ptr, align 8
  %15 = alloca %"class.std::initializer_list.6", align 8
  %16 = alloca [6 x %"class.absl::debian2::string_view"], align 8
  store ptr %0, ptr %8, align 8
  store ptr %1, ptr %9, align 8, !tbaa !11
  store ptr %2, ptr %10, align 8, !tbaa !11
  store ptr %3, ptr %11, align 8, !tbaa !11
  store ptr %4, ptr %12, align 8, !tbaa !11
  store ptr %5, ptr %13, align 8, !tbaa !11
  store ptr %6, ptr %14, align 8, !tbaa !70
  call void @llvm.lifetime.start.p0(i64 96, ptr %16) #16
  %17 = load ptr, ptr %9, align 8, !tbaa !11
  %18 = call { ptr, i64 } @_ZNK4absl7debian28AlphaNum5PieceEv(ptr noundef nonnull align 8 dereferenceable(48) %17)
  %19 = getelementptr inbounds nuw { ptr, i64 }, ptr %16, i32 0, i32 0
  %20 = extractvalue { ptr, i64 } %18, 0
  store ptr %20, ptr %19, align 8
  %21 = getelementptr inbounds nuw { ptr, i64 }, ptr %16, i32 0, i32 1
  %22 = extractvalue { ptr, i64 } %18, 1
  store i64 %22, ptr %21, align 8
  %23 = getelementptr inbounds %"class.absl::debian2::string_view", ptr %16, i64 1
  %24 = load ptr, ptr %10, align 8, !tbaa !11
  %25 = call { ptr, i64 } @_ZNK4absl7debian28AlphaNum5PieceEv(ptr noundef nonnull align 8 dereferenceable(48) %24)
  %26 = getelementptr inbounds nuw { ptr, i64 }, ptr %23, i32 0, i32 0
  %27 = extractvalue { ptr, i64 } %25, 0
  store ptr %27, ptr %26, align 8
  %28 = getelementptr inbounds nuw { ptr, i64 }, ptr %23, i32 0, i32 1
  %29 = extractvalue { ptr, i64 } %25, 1
  store i64 %29, ptr %28, align 8
  %30 = getelementptr inbounds %"class.absl::debian2::string_view", ptr %16, i64 2
  %31 = load ptr, ptr %11, align 8, !tbaa !11
  %32 = call { ptr, i64 } @_ZNK4absl7debian28AlphaNum5PieceEv(ptr noundef nonnull align 8 dereferenceable(48) %31)
  %33 = getelementptr inbounds nuw { ptr, i64 }, ptr %30, i32 0, i32 0
  %34 = extractvalue { ptr, i64 } %32, 0
  store ptr %34, ptr %33, align 8
  %35 = getelementptr inbounds nuw { ptr, i64 }, ptr %30, i32 0, i32 1
  %36 = extractvalue { ptr, i64 } %32, 1
  store i64 %36, ptr %35, align 8
  %37 = getelementptr inbounds %"class.absl::debian2::string_view", ptr %16, i64 3
  %38 = load ptr, ptr %12, align 8, !tbaa !11
  %39 = call { ptr, i64 } @_ZNK4absl7debian28AlphaNum5PieceEv(ptr noundef nonnull align 8 dereferenceable(48) %38)
  %40 = getelementptr inbounds nuw { ptr, i64 }, ptr %37, i32 0, i32 0
  %41 = extractvalue { ptr, i64 } %39, 0
  store ptr %41, ptr %40, align 8
  %42 = getelementptr inbounds nuw { ptr, i64 }, ptr %37, i32 0, i32 1
  %43 = extractvalue { ptr, i64 } %39, 1
  store i64 %43, ptr %42, align 8
  %44 = getelementptr inbounds %"class.absl::debian2::string_view", ptr %16, i64 4
  %45 = load ptr, ptr %13, align 8, !tbaa !11
  %46 = call { ptr, i64 } @_ZNK4absl7debian28AlphaNum5PieceEv(ptr noundef nonnull align 8 dereferenceable(48) %45)
  %47 = getelementptr inbounds nuw { ptr, i64 }, ptr %44, i32 0, i32 0
  %48 = extractvalue { ptr, i64 } %46, 0
  store ptr %48, ptr %47, align 8
  %49 = getelementptr inbounds nuw { ptr, i64 }, ptr %44, i32 0, i32 1
  %50 = extractvalue { ptr, i64 } %46, 1
  store i64 %50, ptr %49, align 8
  %51 = getelementptr inbounds %"class.absl::debian2::string_view", ptr %16, i64 5
  %52 = load ptr, ptr %14, align 8, !tbaa !70
  %53 = call { ptr, i64 } @_ZNK4absl7debian28AlphaNum5PieceEv(ptr noundef nonnull align 8 dereferenceable(48) %52)
  %54 = getelementptr inbounds nuw { ptr, i64 }, ptr %51, i32 0, i32 0
  %55 = extractvalue { ptr, i64 } %53, 0
  store ptr %55, ptr %54, align 8
  %56 = getelementptr inbounds nuw { ptr, i64 }, ptr %51, i32 0, i32 1
  %57 = extractvalue { ptr, i64 } %53, 1
  store i64 %57, ptr %56, align 8
  %58 = getelementptr inbounds nuw %"class.std::initializer_list.6", ptr %15, i32 0, i32 0
  store ptr %16, ptr %58, align 8, !tbaa !74
  %59 = getelementptr inbounds nuw %"class.std::initializer_list.6", ptr %15, i32 0, i32 1
  store i64 6, ptr %59, align 8, !tbaa !76
  %60 = getelementptr inbounds nuw { ptr, i64 }, ptr %15, i32 0, i32 0
  %61 = load ptr, ptr %60, align 8
  %62 = getelementptr inbounds nuw { ptr, i64 }, ptr %15, i32 0, i32 1
  %63 = load i64, ptr %62, align 8
  call void @_ZN4absl7debian216strings_internal9CatPiecesB5cxx11ESt16initializer_listINS0_11string_viewEE(ptr dead_on_unwind writable sret(%"class.std::__cxx11::basic_string") align 8 %0, ptr %61, i64 %63)
  call void @llvm.lifetime.end.p0(i64 96, ptr %16) #16
  ret void
}

; Function Attrs: mustprogress uwtable
define dso_local void @_ZN4i18n12phonenumbers6StrCatB5cxx11ERKNS0_12StringHolderES3_S3_S3_S3_S3_(ptr dead_on_unwind noalias writable sret(%"class.std::__cxx11::basic_string") align 8 %0, ptr noundef nonnull align 8 dereferenceable(48) %1, ptr noundef nonnull align 8 dereferenceable(48) %2, ptr noundef nonnull align 8 dereferenceable(48) %3, ptr noundef nonnull align 8 dereferenceable(48) %4, ptr noundef nonnull align 8 dereferenceable(48) %5, ptr noundef nonnull align 8 dereferenceable(48) %6) #0 {
  %8 = alloca ptr, align 8
  %9 = alloca ptr, align 8
  %10 = alloca ptr, align 8
  %11 = alloca ptr, align 8
  %12 = alloca ptr, align 8
  %13 = alloca ptr, align 8
  %14 = alloca ptr, align 8
  store ptr %0, ptr %8, align 8
  store ptr %1, ptr %9, align 8, !tbaa !70
  store ptr %2, ptr %10, align 8, !tbaa !70
  store ptr %3, ptr %11, align 8, !tbaa !70
  store ptr %4, ptr %12, align 8, !tbaa !70
  store ptr %5, ptr %13, align 8, !tbaa !70
  store ptr %6, ptr %14, align 8, !tbaa !70
  %15 = load ptr, ptr %9, align 8, !tbaa !70
  %16 = load ptr, ptr %10, align 8, !tbaa !70
  %17 = load ptr, ptr %11, align 8, !tbaa !70
  %18 = load ptr, ptr %12, align 8, !tbaa !70
  %19 = load ptr, ptr %13, align 8, !tbaa !70
  %20 = load ptr, ptr %14, align 8, !tbaa !70
  call void @_ZN4absl7debian26StrCatIJN4i18n12phonenumbers12StringHolderEEEENSt7__cxx1112basic_stringIcSt11char_traitsIcESaIcEEERKNS0_8AlphaNumESD_SD_SD_SD_DpRKT_(ptr dead_on_unwind writable sret(%"class.std::__cxx11::basic_string") align 8 %0, ptr noundef nonnull align 8 dereferenceable(48) %15, ptr noundef nonnull align 8 dereferenceable(48) %16, ptr noundef nonnull align 8 dereferenceable(48) %17, ptr noundef nonnull align 8 dereferenceable(48) %18, ptr noundef nonnull align 8 dereferenceable(48) %19, ptr noundef nonnull align 8 dereferenceable(48) %20)
  ret void
}