; Function Attrs: mustprogress uwtable
define dso_local void @_ZN4i18n12phonenumbers6StrCatB5cxx11ERKNS0_12StringHolderES3_S3_S3_S3_S3_(ptr dead_on_unwind noalias writable sret(%"class.std::__cxx11::basic_string") align 8 %0, ptr noundef nonnull readonly align 8 captures(none) dereferenceable(48) %1, ptr noundef nonnull readonly align 8 captures(none) dereferenceable(48) %2, ptr noundef nonnull readonly align 8 captures(none) dereferenceable(48) %3, ptr noundef nonnull readonly align 8 captures(none) dereferenceable(48) %4, ptr noundef nonnull readonly align 8 captures(none) dereferenceable(48) %5, ptr noundef nonnull readonly align 8 captures(none) dereferenceable(48) %6) local_unnamed_addr #0 {
  %8 = alloca [6 x %"class.absl::debian2::string_view"], align 8
  call void @llvm.lifetime.start.p0(i64 96, ptr nonnull %8) #19, !noalias !67
  %.sroa.0.0.copyload.i.i = load ptr, ptr %1, align 8, !tbaa !31, !noalias !67
  %.sroa.2.0..sroa_idx.i.i = getelementptr inbounds nuw i8, ptr %1, i64 8
  %.sroa.2.0.copyload.i.i = load i64, ptr %.sroa.2.0..sroa_idx.i.i, align 8, !tbaa !22, !noalias !67
  store ptr %.sroa.0.0.copyload.i.i, ptr %8, align 8, !noalias !67
  %9 = getelementptr inbounds nuw i8, ptr %8, i64 8
  store i64 %.sroa.2.0.copyload.i.i, ptr %9, align 8, !noalias !67
  %10 = getelementptr inbounds nuw i8, ptr %8, i64 16
  %.sroa.0.0.copyload.i6.i = load ptr, ptr %2, align 8, !tbaa !31, !noalias !67
  %.sroa.2.0..sroa_idx.i7.i = getelementptr inbounds nuw i8, ptr %2, i64 8
  %.sroa.2.0.copyload.i8.i = load i64, ptr %.sroa.2.0..sroa_idx.i7.i, align 8, !tbaa !22, !noalias !67
  store ptr %.sroa.0.0.copyload.i6.i, ptr %10, align 8, !noalias !67
  %11 = getelementptr inbounds nuw i8, ptr %8, i64 24
  store i64 %.sroa.2.0.copyload.i8.i, ptr %11, align 8, !noalias !67
  %12 = getelementptr inbounds nuw i8, ptr %8, i64 32
  %.sroa.0.0.copyload.i11.i = load ptr, ptr %3, align 8, !tbaa !31, !noalias !67
  %.sroa.2.0..sroa_idx.i12.i = getelementptr inbounds nuw i8, ptr %3, i64 8
  %.sroa.2.0.copyload.i13.i = load i64, ptr %.sroa.2.0..sroa_idx.i12.i, align 8, !tbaa !22, !noalias !67
  store ptr %.sroa.0.0.copyload.i11.i, ptr %12, align 8, !noalias !67
  %13 = getelementptr inbounds nuw i8, ptr %8, i64 40
  store i64 %.sroa.2.0.copyload.i13.i, ptr %13, align 8, !noalias !67
  %14 = getelementptr inbounds nuw i8, ptr %8, i64 48
  %.sroa.0.0.copyload.i16.i = load ptr, ptr %4, align 8, !tbaa !31, !noalias !67
  %.sroa.2.0..sroa_idx.i17.i = getelementptr inbounds nuw i8, ptr %4, i64 8
  %.sroa.2.0.copyload.i18.i = load i64, ptr %.sroa.2.0..sroa_idx.i17.i, align 8, !tbaa !22, !noalias !67
  store ptr %.sroa.0.0.copyload.i16.i, ptr %14, align 8, !noalias !67
  %15 = getelementptr inbounds nuw i8, ptr %8, i64 56
  store i64 %.sroa.2.0.copyload.i18.i, ptr %15, align 8, !noalias !67
  %16 = getelementptr inbounds nuw i8, ptr %8, i64 64
  %.sroa.0.0.copyload.i21.i = load ptr, ptr %5, align 8, !tbaa !31, !noalias !67
  %.sroa.2.0..sroa_idx.i22.i = getelementptr inbounds nuw i8, ptr %5, i64 8
  %.sroa.2.0.copyload.i23.i = load i64, ptr %.sroa.2.0..sroa_idx.i22.i, align 8, !tbaa !22, !noalias !67
  store ptr %.sroa.0.0.copyload.i21.i, ptr %16, align 8, !noalias !67
  %17 = getelementptr inbounds nuw i8, ptr %8, i64 72
  store i64 %.sroa.2.0.copyload.i23.i, ptr %17, align 8, !noalias !67
  %18 = getelementptr inbounds nuw i8, ptr %8, i64 80
  %.sroa.0.0.copyload.i26.i = load ptr, ptr %6, align 8, !tbaa !31, !noalias !67
  %.sroa.2.0..sroa_idx.i27.i = getelementptr inbounds nuw i8, ptr %6, i64 8
  %.sroa.2.0.copyload.i28.i = load i64, ptr %.sroa.2.0..sroa_idx.i27.i, align 8, !tbaa !22, !noalias !67
  store ptr %.sroa.0.0.copyload.i26.i, ptr %18, align 8, !noalias !67
  %19 = getelementptr inbounds nuw i8, ptr %8, i64 88
  store i64 %.sroa.2.0.copyload.i28.i, ptr %19, align 8, !noalias !67
  call void @_ZN4absl7debian216strings_internal9CatPiecesB5cxx11ESt16initializer_listINS0_11string_viewEE(ptr dead_on_unwind writable sret(%"class.std::__cxx11::basic_string") align 8 %0, ptr nonnull %8, i64 6)
  call void @llvm.lifetime.end.p0(i64 96, ptr nonnull %8) #19, !noalias !67
  ret void
}